target datalayout = "e-m:e-p270:32:32-p271:32:32-p272:64:64-i64:64-i128:128-f80:128-n8:16:32:64-S128"
target triple = "x86_64-pc-linux-gnu"

%"class.google::protobuf::StringPiece" = type { ptr, i64 }
%"struct.google::protobuf::internal::EnumEntry" = type <{ %"class.google::protobuf::StringPiece", i32, [4 x i8] }>
%"struct.__gnu_cxx::__ops::_Iter_comp_val" = type { ptr }

; Function Attrs: inlinehint mustprogress nounwind uwtable
define linkonce_odr void @_ZSt9__advanceIPKN6google8protobuf8internal9EnumEntryElEvRT_T0_St26random_access_iterator_tag(ptr noundef nonnull align 8 dereferenceable(8) %0, i64 noundef %1) #8 comdat {
  %3 = alloca ptr, align 8
  %4 = alloca i64, align 8
  store ptr %0, ptr %3, align 8, !tbaa !36
  store i64 %1, ptr %4, align 8, !tbaa !8
  %5 = load i64, ptr %4, align 8, !tbaa !8
  %6 = call i1 @llvm.is.constant.i64(i64 %5)
  br i1 %6, label %7, label %14

7:                                                ; preds = %2
  %8 = load i64, ptr %4, align 8, !tbaa !8
  %9 = icmp eq i64 %8, 1
  br i1 %9, label %10, label %14

10:                                               ; preds = %7
  %11 = load ptr, ptr %3, align 8, !tbaa !36
  %12 = load ptr, ptr %11, align 8, !tbaa !3
  %13 = getelementptr inbounds nuw %"struct.google::protobuf::internal::EnumEntry", ptr %12, i32 1
  store ptr %13, ptr %11, align 8, !tbaa !3
  br label %30

14:                                               ; preds = %7, %2
  %15 = load i64, ptr %4, align 8, !tbaa !8
  %16 = call i1 @llvm.is.constant.i64(i64 %15)
  br i1 %16, label %17, label %24

17:                                               ; preds = %14
  %18 = load i64, ptr %4, align 8, !tbaa !8
  %19 = icmp eq i64 %18, -1
  br i1 %19, label %20, label %24

20:                                               ; preds = %17
  %21 = load ptr, ptr %3, align 8, !tbaa !36
  %22 = load ptr, ptr %21, align 8, !tbaa !3
  %23 = getelementptr inbounds %"struct.google::protobuf::internal::EnumEntry", ptr %22, i32 -1
  store ptr %23, ptr %21, align 8, !tbaa !3
  br label %29

24:                                               ; preds = %17, %14
  %25 = load i64, ptr %4, align 8, !tbaa !8
  %26 = load ptr, ptr %3, align 8, !tbaa !36
  %27 = load ptr, ptr %26, align 8, !tbaa !3
  %28 = getelementptr inbounds %"struct.google::protobuf::internal::EnumEntry", ptr %27, i64 %25
  store ptr %28, ptr %26, align 8, !tbaa !3
  br label %29

29:                                               ; preds = %24, %20
  br label %30

30:                                               ; preds = %29, %10
  ret void
}

; Function Attrs: inlinehint mustprogress nounwind uwtable
define linkonce_odr noundef i64 @_ZSt10__distanceIPKN6google8protobuf8internal9EnumEntryEENSt15iterator_traitsIT_E15difference_typeES7_S7_St26random_access_iterator_tag(ptr noundef %0, ptr noundef %1) #8 comdat {
  %3 = alloca ptr, align 8
  %4 = alloca ptr, align 8
  store ptr %0, ptr %3, align 8, !tbaa !3
  store ptr %1, ptr %4, align 8, !tbaa !3
  %5 = load ptr, ptr %4, align 8, !tbaa !3
  %6 = load ptr, ptr %3, align 8, !tbaa !3
  %7 = ptrtoint ptr %5 to i64
  %8 = ptrtoint ptr %6 to i64
  %9 = sub i64 %7, %8
  %10 = sdiv exact i64 %9, 24
  ret i64 %10
}

; Function Attrs: inlinehint mustprogress nounwind uwtable
define linkonce_odr void @_ZSt19__iterator_categoryIPKN6google8protobuf8internal9EnumEntryEENSt15iterator_traitsIT_E17iterator_categoryERKS7_(ptr noundef nonnull align 8 dereferenceable(8) %0) #8 comdat {
  %2 = alloca ptr, align 8
  store ptr %0, ptr %2, align 8, !tbaa !36
  ret void
}

; Function Attrs: mustprogress uwtable
define linkonce_odr noundef zeroext i1 @_ZN9__gnu_cxx5__ops14_Iter_comp_valIPFbRKN6google8protobuf8internal9EnumEntryES7_EEclIPS6_S6_EEbT_RT0_(ptr noundef nonnull align 8 dereferenceable(8) %0, ptr noundef %1, ptr noundef nonnull align 8 dereferenceable(20) %2) #4 comdat align 2 {
  %4 = alloca ptr, align 8
  %5 = alloca ptr, align 8
  %6 = alloca ptr, align 8
  store ptr %0, ptr %4, align 8, !tbaa !39
  store ptr %1, ptr %5, align 8, !tbaa !3
  store ptr %2, ptr %6, align 8, !tbaa !3
  %7 = load ptr, ptr %4, align 8
  %8 = getelementptr inbounds nuw %"struct.__gnu_cxx::__ops::_Iter_comp_val", ptr %7, i32 0, i32 0
  %9 = load ptr, ptr %8, align 8, !tbaa !41
  %10 = load ptr, ptr %5, align 8, !tbaa !3
  %11 = load ptr, ptr %6, align 8, !tbaa !3
  %12 = call noundef zeroext i1 %9(ptr noundef nonnull align 8 dereferenceable(20) %10, ptr noundef nonnull align 8 dereferenceable(20) %11)
  ret i1 %12
}

; Function Attrs: inlinehint mustprogress uwtable
define linkonce_odr void @_ZSt7advanceIPKN6google8protobuf8internal9EnumEntryElEvRT_T0_(ptr noundef nonnull align 8 dereferenceable(8) %0, i64 noundef %1) #7 comdat {
  %3 = alloca ptr, align 8
  %4 = alloca i64, align 8
  %5 = alloca i64, align 8
  store ptr %0, ptr %3, align 8, !tbaa !36
  store i64 %1, ptr %4, align 8, !tbaa !8
  call void @llvm.lifetime.start.p0(i64 8, ptr %5) #3
  %6 = load i64, ptr %4, align 8, !tbaa !8
  store i64 %6, ptr %5, align 8, !tbaa !8
  %7 = load ptr, ptr %3, align 8, !tbaa !36
  %8 = load i64, ptr %5, align 8, !tbaa !8
  %9 = load ptr, ptr %3, align 8, !tbaa !36
  call void @_ZSt19__iterator_categoryIPKN6google8protobuf8internal9EnumEntryEENSt15iterator_traitsIT_E17iterator_categoryERKS7_(ptr noundef nonnull align 8 dereferenceable(8) %9)
  call void @_ZSt9__advanceIPKN6google8protobuf8internal9EnumEntryElEvRT_T0_St26random_access_iterator_tag(ptr noundef nonnull align 8 dereferenceable(8) %7, i64 noundef %8)
  call void @llvm.lifetime.end.p0(i64 8, ptr %5) #3
  ret void
}

; Function Attrs: inlinehint mustprogress uwtable
define linkonce_odr noundef i64 @_ZSt8distanceIPKN6google8protobuf8internal9EnumEntryEENSt15iterator_traitsIT_E15difference_typeES7_S7_(ptr noundef %0, ptr noundef %1) #7 comdat {
  %3 = alloca ptr, align 8
  %4 = alloca ptr, align 8
  store ptr %0, ptr %3, align 8, !tbaa !3
  store ptr %1, ptr %4, align 8, !tbaa !3
  %5 = load ptr, ptr %3, align 8, !tbaa !3
  %6 = load ptr, ptr %4, align 8, !tbaa !3
  call void @_ZSt19__iterator_categoryIPKN6google8protobuf8internal9EnumEntryEENSt15iterator_traitsIT_E17iterator_categoryERKS7_(ptr noundef nonnull align 8 dereferenceable(8) %3)
  %7 = call noundef i64 @_ZSt10__distanceIPKN6google8protobuf8internal9EnumEntryEENSt15iterator_traitsIT_E15difference_typeES7_S7_St26random_access_iterator_tag(ptr noundef %5, ptr noundef %6)
  ret i64 %7
}

; Function Attrs: mustprogress nounwind uwtable
define linkonce_odr void @_ZN9__gnu_cxx5__ops14_Iter_comp_valIPFbRKN6google8protobuf8internal9EnumEntryES7_EEC2ES9_(ptr noundef nonnull align 8 dereferenceable(8) %0, ptr noundef %1) unnamed_addr #9 comdat align 2 {
  %3 = alloca ptr, align 8
  %4 = alloca ptr, align 8
  store ptr %0, ptr %3, align 8, !tbaa !39
  store ptr %1, ptr %4, align 8, !tbaa !20
  %5 = load ptr, ptr %3, align 8
  %6 = getelementptr inbounds nuw %"struct.__gnu_cxx::__ops::_Iter_comp_val", ptr %5, i32 0, i32 0
  %7 = load ptr, ptr %4, align 8, !tbaa !20
  store ptr %7, ptr %6, align 8, !tbaa !41
  ret void
}

; Function Attrs: mustprogress nounwind uwtable
define linkonce_odr noundef ptr @_ZNK6google8protobuf11StringPiece4dataEv(ptr noundef nonnull align 8 dereferenceable(16) %0) #9 comdat align 2 {
  %2 = alloca ptr, align 8
  store ptr %0, ptr %2, align 8, !tbaa !29
  %3 = load ptr, ptr %2, align 8
  %4 = getelementptr inbounds nuw %"class.google::protobuf::StringPiece", ptr %3, i32 0, i32 0
  %5 = load ptr, ptr %4, align 8, !tbaa !34
  ret ptr %5
}

; Function Attrs: mustprogress nounwind uwtable
define linkonce_odr noundef i64 @_ZNK6google8protobuf11StringPiece4sizeEv(ptr noundef nonnull align 8 dereferenceable(16) %0) #9 comdat align 2 {
  %2 = alloca ptr, align 8
  store ptr %0, ptr %2, align 8, !tbaa !29
  %3 = load ptr, ptr %2, align 8
  %4 = getelementptr inbounds nuw %"class.google::protobuf::StringPiece", ptr %3, i32 0, i32 1
  %5 = load i64, ptr %4, align 8, !tbaa !33
  ret i64 %5
}

; Function Attrs: mustprogress uwtable
define linkonce_odr noundef ptr @_ZSt13__lower_boundIPKN6google8protobuf8internal9EnumEntryES3_N9__gnu_cxx5__ops14_Iter_comp_valIPFbRS4_S9_EEEET_SD_SD_RKT0_T1_(ptr noundef %0, ptr noundef %1, ptr noundef nonnull align 8 dereferenceable(20) %2, ptr %3) #4 comdat {
  %5 = alloca %"struct.__gnu_cxx::__ops::_Iter_comp_val", align 8
  %6 = alloca ptr, align 8
  %7 = alloca ptr, align 8
  %8 = alloca ptr, align 8
  %9 = alloca i64, align 8
  %10 = alloca i64, align 8
  %11 = alloca ptr, align 8
  %12 = getelementptr inbounds nuw %"struct.__gnu_cxx::__ops::_Iter_comp_val", ptr %5, i32 0, i32 0
  store ptr %3, ptr %12, align 8
  store ptr %0, ptr %6, align 8, !tbaa !3
  store ptr %1, ptr %7, align 8, !tbaa !3
  store ptr %2, ptr %8, align 8, !tbaa !3
  call void @llvm.lifetime.start.p0(i64 8, ptr %9) #3
  %13 = load ptr, ptr %6, align 8, !tbaa !3
  %14 = load ptr, ptr %7, align 8, !tbaa !3
  %15 = call noundef i64 @_ZSt8distanceIPKN6google8protobuf8internal9EnumEntryEENSt15iterator_traitsIT_E15difference_typeES7_S7_(ptr noundef %13, ptr noundef %14)
  store i64 %15, ptr %9, align 8, !tbaa !8
  br label %16

16:                                               ; preds = %37, %4
  %17 = load i64, ptr %9, align 8, !tbaa !8
  %18 = icmp sgt i64 %17, 0
  br i1 %18, label %19, label %38

19:                                               ; preds = %16
  call void @llvm.lifetime.start.p0(i64 8, ptr %10) #3
  %20 = load i64, ptr %9, align 8, !tbaa !8
  %21 = ashr i64 %20, 1
  store i64 %21, ptr %10, align 8, !tbaa !8
  call void @llvm.lifetime.start.p0(i64 8, ptr %11) #3
  %22 = load ptr, ptr %6, align 8, !tbaa !3
  store ptr %22, ptr %11, align 8, !tbaa !3
  %23 = load i64, ptr %10, align 8, !tbaa !8
  call void @_ZSt7advanceIPKN6google8protobuf8internal9EnumEntryElEvRT_T0_(ptr noundef nonnull align 8 dereferenceable(8) %11, i64 noundef %23)
  %24 = load ptr, ptr %11, align 8, !tbaa !3
  %25 = load ptr, ptr %8, align 8, !tbaa !3
  %26 = call noundef zeroext i1 @_ZN9__gnu_cxx5__ops14_Iter_comp_valIPFbRKN6google8protobuf8internal9EnumEntryES7_EEclIPS6_S6_EEbT_RT0_(ptr noundef nonnull align 8 dereferenceable(8) %5, ptr noundef %24, ptr noundef nonnull align 8 dereferenceable(20) %25)
  br i1 %26, label %27, label %35

27:                                               ; preds = %19
  %28 = load ptr, ptr %11, align 8, !tbaa !3
  store ptr %28, ptr %6, align 8, !tbaa !3
  %29 = load ptr, ptr %6, align 8, !tbaa !3
  %30 = getelementptr inbounds nuw %"struct.google::protobuf::internal::EnumEntry", ptr %29, i32 1
  store ptr %30, ptr %6, align 8, !tbaa !3
  %31 = load i64, ptr %9, align 8, !tbaa !8
  %32 = load i64, ptr %10, align 8, !tbaa !8
  %33 = sub nsw i64 %31, %32
  %34 = sub nsw i64 %33, 1
  store i64 %34, ptr %9, align 8, !tbaa !8
  br label %37

35:                                               ; preds = %19
  %36 = load i64, ptr %10, align 8, !tbaa !8
  store i64 %36, ptr %9, align 8, !tbaa !8
  br label %37

37:                                               ; preds = %35, %27
  call void @llvm.lifetime.end.p0(i64 8, ptr %11) #3
  call void @llvm.lifetime.end.p0(i64 8, ptr %10) #3
  br label %16, !llvm.loop !35

38:                                               ; preds = %16
  %39 = load ptr, ptr %6, align 8, !tbaa !3
  call void @llvm.lifetime.end.p0(i64 8, ptr %9) #3
  ret ptr %39
}

; Function Attrs: inlinehint mustprogress uwtable
define linkonce_odr ptr @_ZN9__gnu_cxx5__ops15__iter_comp_valIPFbRKN6google8protobuf8internal9EnumEntryES7_EEENS0_14_Iter_comp_valIT_EESB_(ptr noundef %0) #7 comdat {
  %2 = alloca %"struct.__gnu_cxx::__ops::_Iter_comp_val", align 8
  %3 = alloca ptr, align 8
  store ptr %0, ptr %3, align 8, !tbaa !20
  %4 = load ptr, ptr %3, align 8, !tbaa !20
  call void @_ZN9__gnu_cxx5__ops14_Iter_comp_valIPFbRKN6google8protobuf8internal9EnumEntryES7_EEC2ES9_(ptr noundef nonnull align 8 dereferenceable(8) %2, ptr noundef %4)
  %5 = getelementptr inbounds nuw %"struct.__gnu_cxx::__ops::_Iter_comp_val", ptr %2, i32 0, i32 0
  %6 = load ptr, ptr %5, align 8
  ret ptr %6
}

; Function Attrs: inlinehint mustprogress nounwind uwtable
define linkonce_odr noundef zeroext i1 @_ZN6google8protobufeqENS0_11StringPieceES1_(ptr %0, i64 %1, ptr %2, i64 %3) #8 comdat {
  %5 = alloca i1, align 1
  %6 = alloca %"class.google::protobuf::StringPiece", align 8
  %7 = alloca %"class.google::protobuf::StringPiece", align 8
  %8 = alloca i64, align 8
  %9 = alloca i32, align 4
  %10 = getelementptr inbounds nuw { ptr, i64 }, ptr %6, i32 0, i32 0
  store ptr %0, ptr %10, align 8
  %11 = getelementptr inbounds nuw { ptr, i64 }, ptr %6, i32 0, i32 1
  store i64 %1, ptr %11, align 8
  %12 = getelementptr inbounds nuw { ptr, i64 }, ptr %7, i32 0, i32 0
  store ptr %2, ptr %12, align 8
  %13 = getelementptr inbounds nuw { ptr, i64 }, ptr %7, i32 0, i32 1
  store i64 %3, ptr %13, align 8
  call void @llvm.lifetime.start.p0(i64 8, ptr %8) #3
  %14 = call noundef i64 @_ZNK6google8protobuf11StringPiece4sizeEv(ptr noundef nonnull align 8 dereferenceable(16) %6)
  store i64 %14, ptr %8, align 8, !tbaa !8
  %15 = load i64, ptr %8, align 8, !tbaa !8
  %16 = call noundef i64 @_ZNK6google8protobuf11StringPiece4sizeEv(ptr noundef nonnull align 8 dereferenceable(16) %7)
  %17 = icmp ne i64 %15, %16
  br i1 %17, label %18, label %19

18:                                               ; preds = %4
  store i1 false, ptr %5, align 1
  store i32 1, ptr %9, align 4
  br label %34

19:                                               ; preds = %4
  %20 = call noundef ptr @_ZNK6google8protobuf11StringPiece4dataEv(ptr noundef nonnull align 8 dereferenceable(16) %6)
  %21 = call noundef ptr @_ZNK6google8protobuf11StringPiece4dataEv(ptr noundef nonnull align 8 dereferenceable(16) %7)
  %22 = icmp eq ptr %20, %21
  br i1 %22, label %32, label %23

23:                                               ; preds = %19
  %24 = load i64, ptr %8, align 8, !tbaa !8
  %25 = icmp sle i64 %24, 0
  br i1 %25, label %32, label %26

26:                                               ; preds = %23
  %27 = call noundef ptr @_ZNK6google8protobuf11StringPiece4dataEv(ptr noundef nonnull align 8 dereferenceable(16) %6)
  %28 = call noundef ptr @_ZNK6google8protobuf11StringPiece4dataEv(ptr noundef nonnull align 8 dereferenceable(16) %7)
  %29 = load i64, ptr %8, align 8, !tbaa !8
  %30 = call i32 @memcmp(ptr noundef %27, ptr noundef %28, i64 noundef %29) #16
  %31 = icmp eq i32 %30, 0
  br label %32

32:                                               ; preds = %26, %23, %19
  %33 = phi i1 [ true, %23 ], [ true, %19 ], [ %31, %26 ]
  store i1 %33, ptr %5, align 1
  store i32 1, ptr %9, align 4
  br label %34

34:                                               ; preds = %32, %18
  call void @llvm.lifetime.end.p0(i64 8, ptr %8) #3
  %35 = load i1, ptr %5, align 1
  ret i1 %35
}

; Function Attrs: inlinehint mustprogress uwtable
define linkonce_odr noundef ptr @_ZSt11lower_boundIPKN6google8protobuf8internal9EnumEntryES3_PFbRS4_S6_EET_S9_S9_RKT0_T1_(ptr noundef %0, ptr noundef %1, ptr noundef nonnull align 8 dereferenceable(20) %2, ptr noundef %3) #7 comdat {
  %5 = alloca ptr, align 8
  %6 = alloca ptr, align 8
  %7 = alloca ptr, align 8
  %8 = alloca ptr, align 8
  %9 = alloca %"struct.__gnu_cxx::__ops::_Iter_comp_val", align 8
  store ptr %0, ptr %5, align 8, !tbaa !3
  store ptr %1, ptr %6, align 8, !tbaa !3
  store ptr %2, ptr %7, align 8, !tbaa !3
  store ptr %3, ptr %8, align 8, !tbaa !20
  %10 = load ptr, ptr %5, align 8, !tbaa !3
  %11 = load ptr, ptr %6, align 8, !tbaa !3
  %12 = load ptr, ptr %7, align 8, !tbaa !3
  %13 = load ptr, ptr %8, align 8, !tbaa !20
  %14 = call ptr @_ZN9__gnu_cxx5__ops15__iter_comp_valIPFbRKN6google8protobuf8internal9EnumEntryES7_EEENS0_14_Iter_comp_valIT_EESB_(ptr noundef %13)
  %15 = getelementptr inbounds nuw %"struct.__gnu_cxx::__ops::_Iter_comp_val", ptr %9, i32 0, i32 0
  store ptr %14, ptr %15, align 8
  %16 = getelementptr inbounds nuw %"struct.__gnu_cxx::__ops::_Iter_comp_val", ptr %9, i32 0, i32 0
  %17 = load ptr, ptr %16, align 8
  %18 = call noundef ptr @_ZSt13__lower_boundIPKN6google8protobuf8internal9EnumEntryES3_N9__gnu_cxx5__ops14_Iter_comp_valIPFbRS4_S9_EEEET_SD_SD_RKT0_T1_(ptr noundef %10, ptr noundef %11, ptr noundef nonnull align 8 dereferenceable(20) %12, ptr %17)
  ret ptr %18
}

; Function Attrs: mustprogress uwtable
define noundef zeroext i1 @_ZN6google8protobuf8internal15LookUpEnumValueEPKNS1_9EnumEntryEmNS0_11StringPieceEPi(ptr noundef %0, i64 noundef %1, ptr %2, i64 %3, ptr noundef %4) #4 {
  %6 = alloca i1, align 1
  %7 = alloca %"class.google::protobuf::StringPiece", align 8
  %8 = alloca ptr, align 8
  %9 = alloca i64, align 8
  %10 = alloca ptr, align 8
  %11 = alloca %"struct.google::protobuf::internal::EnumEntry", align 8
  %12 = alloca ptr, align 8
  %13 = alloca %"class.google::protobuf::StringPiece", align 8
  %14 = alloca %"class.google::protobuf::StringPiece", align 8
  %15 = alloca i32, align 4
  %16 = getelementptr inbounds nuw { ptr, i64 }, ptr %7, i32 0, i32 0
  store ptr %2, ptr %16, align 8
  %17 = getelementptr inbounds nuw { ptr, i64 }, ptr %7, i32 0, i32 1
  store i64 %3, ptr %17, align 8
  store ptr %0, ptr %8, align 8, !tbaa !3
  store i64 %1, ptr %9, align 8, !tbaa !8
  store ptr %4, ptr %10, align 8, !tbaa !10
  call void @llvm.lifetime.start.p0(i64 24, ptr %11) #3
  %18 = getelementptr inbounds nuw %"struct.google::protobuf::internal::EnumEntry", ptr %11, i32 0, i32 0
  call void @llvm.memcpy.p0.p0.i64(ptr align 8 %18, ptr align 8 %7, i64 16, i1 false), !tbaa.struct !12
  %19 = getelementptr inbounds nuw %"struct.google::protobuf::internal::EnumEntry", ptr %11, i32 0, i32 1
  store i32 0, ptr %19, align 8, !tbaa !15
  call void @llvm.lifetime.start.p0(i64 8, ptr %12) #3
  %20 = load ptr, ptr %8, align 8, !tbaa !3
  %21 = load ptr, ptr %8, align 8, !tbaa !3
  %22 = load i64, ptr %9, align 8, !tbaa !8
  %23 = getelementptr inbounds nuw %"struct.google::protobuf::internal::EnumEntry", ptr %21, i64 %22
  %24 = call noundef ptr @_ZSt11lower_boundIPKN6google8protobuf8internal9EnumEntryES3_PFbRS4_S6_EET_S9_S9_RKT0_T1_(ptr noundef %20, ptr noundef %23, ptr noundef nonnull align 8 dereferenceable(20) %11, ptr noundef @_ZN6google8protobuf8internal12_GLOBAL__N_117EnumCompareByNameERKNS1_9EnumEntryES5_)
  store ptr %24, ptr %12, align 8, !tbaa !3
  %25 = load ptr, ptr %12, align 8, !tbaa !3
  %26 = load ptr, ptr %8, align 8, !tbaa !3
  %27 = load i64, ptr %9, align 8, !tbaa !8
  %28 = getelementptr inbounds nuw %"struct.google::protobuf::internal::EnumEntry", ptr %26, i64 %27
  %29 = icmp ne ptr %25, %28
  br i1 %29, label %30, label %47

30:                                               ; preds = %5
  %31 = load ptr, ptr %12, align 8, !tbaa !3
  %32 = getelementptr inbounds nuw %"struct.google::protobuf::internal::EnumEntry", ptr %31, i32 0, i32 0
  call void @llvm.memcpy.p0.p0.i64(ptr align 8 %13, ptr align 8 %32, i64 16, i1 false), !tbaa.struct !12
  call void @llvm.memcpy.p0.p0.i64(ptr align 8 %14, ptr align 8 %7, i64 16, i1 false), !tbaa.struct !12
  %33 = getelementptr inbounds nuw { ptr, i64 }, ptr %13, i32 0, i32 0
  %34 = load ptr, ptr %33, align 8
  %35 = getelementptr inbounds nuw { ptr, i64 }, ptr %13, i32 0, i32 1
  %36 = load i64, ptr %35, align 8
  %37 = getelementptr inbounds nuw { ptr, i64 }, ptr %14, i32 0, i32 0
  %38 = load ptr, ptr %37, align 8
  %39 = getelementptr inbounds nuw { ptr, i64 }, ptr %14, i32 0, i32 1
  %40 = load i64, ptr %39, align 8
  %41 = call noundef zeroext i1 @_ZN6google8protobufeqENS0_11StringPieceES1_(ptr %34, i64 %36, ptr %38, i64 %40)
  br i1 %41, label %42, label %47

42:                                               ; preds = %30
  %43 = load ptr, ptr %12, align 8, !tbaa !3
  %44 = getelementptr inbounds nuw %"struct.google::protobuf::internal::EnumEntry", ptr %43, i32 0, i32 1
  %45 = load i32, ptr %44, align 8, !tbaa !15
  %46 = load ptr, ptr %10, align 8, !tbaa !10
  store i32 %45, ptr %46, align 4, !tbaa !19
  store i1 true, ptr %6, align 1
  store i32 1, ptr %15, align 4
  br label %48

47:                                               ; preds = %30, %5
  store i1 false, ptr %6, align 1
  store i32 1, ptr %15, align 4
  br label %48

48:                                               ; preds = %47, %42
  call void @llvm.lifetime.end.p0(i64 8, ptr %12) #3
  call void @llvm.lifetime.end.p0(i64 24, ptr %11) #3
  %49 = load i1, ptr %6, align 1
  ret i1 %49
}