; Function Attrs: mustprogress nofree nounwind memory(read, argmem: readwrite, inaccessiblemem: none) uwtable
define noundef zeroext i1 @_ZN6google8protobuf8internal15LookUpEnumValueEPKNS1_9EnumEntryEmNS0_11StringPieceEPi(ptr noundef readonly %0, i64 noundef %1, ptr readonly %2, i64 %3, ptr noundef writeonly captures(none) %4) local_unnamed_addr #3 {
  %6 = getelementptr inbounds nuw %"struct.google::protobuf::internal::EnumEntry", ptr %0, i64 %1
  %.not20 = icmp eq i64 %1, 0
  br i1 %.not20, label %_ZSt11lower_boundIPKN6google8protobuf8internal9EnumEntryES3_PFbRS4_S6_EET_S9_S9_RKT0_T1_.exit, label %_ZSt7advanceIPKN6google8protobuf8internal9EnumEntryElEvRT_T0_.exit.i.i

_ZSt7advanceIPKN6google8protobuf8internal9EnumEntryElEvRT_T0_.exit.i.i: ; preds = %5, %19
  %.017.i.i = phi ptr [ %21, %19 ], [ %0, %5 ]
  %.01116.i.i = phi i64 [ %20, %19 ], [ %1, %5 ]
  %7 = lshr i64 %.01116.i.i, 1
  %8 = getelementptr inbounds nuw %"struct.google::protobuf::internal::EnumEntry", ptr %.017.i.i, i64 %7
  %.sroa.01.0.copyload.i = load ptr, ptr %8, align 8, !tbaa !3
  %.sroa.22.0..sroa_idx.i = getelementptr inbounds nuw i8, ptr %8, i64 8
  %.sroa.22.0.copyload.i = load i64, ptr %.sroa.22.0..sroa_idx.i, align 8, !tbaa !8
  %spec.select.i.i = tail call i64 @llvm.smin.i64(i64 %.sroa.22.0.copyload.i, i64 %3)
  %9 = tail call i32 @memcmp(ptr noundef %.sroa.01.0.copyload.i, ptr noundef %2, i64 noundef %spec.select.i.i) #13
  %10 = icmp slt i32 %9, 0
  br i1 %10, label %.thread, label %_ZN6google8protobuf8internal12_GLOBAL__N_117EnumCompareByNameERKNS1_9EnumEntryES5_.exit

.thread:                                          ; preds = %_ZSt7advanceIPKN6google8protobuf8internal9EnumEntryElEvRT_T0_.exit.i.i
  %11 = getelementptr inbounds nuw i8, ptr %8, i64 24
  %12 = xor i64 %7, -1
  %13 = add nsw i64 %.01116.i.i, %12
  br label %19

_ZN6google8protobuf8internal12_GLOBAL__N_117EnumCompareByNameERKNS1_9EnumEntryES5_.exit: ; preds = %_ZSt7advanceIPKN6google8protobuf8internal9EnumEntryElEvRT_T0_.exit.i.i
  %14 = icmp slt i64 %.sroa.22.0.copyload.i, %3
  %15 = icmp eq i32 %9, 0
  %spec.select9.i.i = and i1 %14, %15
  %cond.fr = freeze i1 %spec.select9.i.i
  %16 = getelementptr inbounds nuw i8, ptr %8, i64 24
  %17 = xor i64 %7, -1
  %18 = add nsw i64 %.01116.i.i, %17
  %spec.select = select i1 %cond.fr, i64 %18, i64 %7
  %spec.select21 = select i1 %cond.fr, ptr %16, ptr %.017.i.i
  br label %19

19:                                               ; preds = %_ZN6google8protobuf8internal12_GLOBAL__N_117EnumCompareByNameERKNS1_9EnumEntryES5_.exit, %.thread
  %20 = phi i64 [ %13, %.thread ], [ %spec.select, %_ZN6google8protobuf8internal12_GLOBAL__N_117EnumCompareByNameERKNS1_9EnumEntryES5_.exit ]
  %21 = phi ptr [ %11, %.thread ], [ %spec.select21, %_ZN6google8protobuf8internal12_GLOBAL__N_117EnumCompareByNameERKNS1_9EnumEntryES5_.exit ]
  %22 = icmp sgt i64 %20, 0
  br i1 %22, label %_ZSt7advanceIPKN6google8protobuf8internal9EnumEntryElEvRT_T0_.exit.i.i, label %_ZSt11lower_boundIPKN6google8protobuf8internal9EnumEntryES3_PFbRS4_S6_EET_S9_S9_RKT0_T1_.exit, !llvm.loop !10

_ZSt11lower_boundIPKN6google8protobuf8internal9EnumEntryES3_PFbRS4_S6_EET_S9_S9_RKT0_T1_.exit: ; preds = %19, %5
  %.0.lcssa.i.i = phi ptr [ %0, %5 ], [ %21, %19 ]
  %.not = icmp eq ptr %.0.lcssa.i.i, %6
  br i1 %.not, label %_ZN6google8protobufeqENS0_11StringPieceES1_.exit.thread18, label %23

23:                                               ; preds = %_ZSt11lower_boundIPKN6google8protobuf8internal9EnumEntryES3_PFbRS4_S6_EET_S9_S9_RKT0_T1_.exit
  %.sroa.01.0.copyload = load ptr, ptr %.0.lcssa.i.i, align 8, !tbaa !3
  %.sroa.22.0..sroa_idx = getelementptr inbounds nuw i8, ptr %.0.lcssa.i.i, i64 8
  %.sroa.22.0.copyload = load i64, ptr %.sroa.22.0..sroa_idx, align 8, !tbaa !8
  %.not.i = icmp eq i64 %.sroa.22.0.copyload, %3
  br i1 %.not.i, label %24, label %_ZN6google8protobufeqENS0_11StringPieceES1_.exit.thread18

24:                                               ; preds = %23
  %25 = icmp eq ptr %.sroa.01.0.copyload, %2
  %26 = icmp slt i64 %3, 1
  %or.cond.i = or i1 %25, %26
  br i1 %or.cond.i, label %_ZN6google8protobufeqENS0_11StringPieceES1_.exit.thread, label %_ZN6google8protobufeqENS0_11StringPieceES1_.exit

_ZN6google8protobufeqENS0_11StringPieceES1_.exit: ; preds = %24
  %bcmp.i = tail call i32 @bcmp(ptr %.sroa.01.0.copyload, ptr %2, i64 %3)
  %27 = icmp eq i32 %bcmp.i, 0
  br i1 %27, label %_ZN6google8protobufeqENS0_11StringPieceES1_.exit.thread, label %_ZN6google8protobufeqENS0_11StringPieceES1_.exit.thread18

_ZN6google8protobufeqENS0_11StringPieceES1_.exit.thread: ; preds = %24, %_ZN6google8protobufeqENS0_11StringPieceES1_.exit
  %28 = getelementptr inbounds nuw i8, ptr %.0.lcssa.i.i, i64 16
  %29 = load i32, ptr %28, align 8, !tbaa !12
  store i32 %29, ptr %4, align 4, !tbaa !16
  br label %_ZN6google8protobufeqENS0_11StringPieceES1_.exit.thread18

_ZN6google8protobufeqENS0_11StringPieceES1_.exit.thread18: ; preds = %23, %_ZSt11lower_boundIPKN6google8protobuf8internal9EnumEntryES3_PFbRS4_S6_EET_S9_S9_RKT0_T1_.exit, %_ZN6google8protobufeqENS0_11StringPieceES1_.exit, %_ZN6google8protobufeqENS0_11StringPieceES1_.exit.thread
  %.0 = phi i1 [ true, %_ZN6google8protobufeqENS0_11StringPieceES1_.exit.thread ], [ false, %_ZN6google8protobufeqENS0_11StringPieceES1_.exit ], [ false, %_ZSt11lower_boundIPKN6google8protobuf8internal9EnumEntryES3_PFbRS4_S6_EET_S9_S9_RKT0_T1_.exit ], [ false, %23 ]
  ret i1 %.0
}